target datalayout = "e-m:e-p270:32:32-p271:32:32-p272:64:64-i64:64-i128:128-f80:128-n8:16:32:64-S128"
target triple = "x86_64-pc-linux-gnu"

%"class.std::mutex" = type { %"class.std::__mutex_base" }
%"class.std::__mutex_base" = type { %union.pthread_mutex_t }
%union.pthread_mutex_t = type { %struct.__pthread_mutex_s }
%struct.__pthread_mutex_s = type { i32, i32, i32, i32, i32, i16, i16, %struct.__pthread_internal_list }
%struct.__pthread_internal_list = type { ptr, ptr }
%"class.std::condition_variable" = type { %"class.std::__condvar" }
%"class.std::__condvar" = type { %union.pthread_cond_t }
%union.pthread_cond_t = type { %struct.__pthread_cond_s }
%struct.__pthread_cond_s = type { %union.__atomic_wide_counter, %union.__atomic_wide_counter, [2 x i32], [2 x i32], i32, i32, [2 x i32] }
%union.__atomic_wide_counter = type { i64 }
%"class.pbrt::ThreadPool" = type { %"class.std::vector", %"class.std::mutex", i8, i8, ptr, %"class.std::condition_variable" }
%"class.std::vector" = type { %"struct.std::_Vector_base" }
%"struct.std::_Vector_base" = type { %"struct.std::_Vector_base<std::thread, std::allocator<std::thread>>::_Vector_impl" }
%"struct.std::_Vector_base<std::thread, std::allocator<std::thread>>::_Vector_impl" = type { %"struct.std::_Vector_base<std::thread, std::allocator<std::thread>>::_Vector_impl_data" }
%"struct.std::_Vector_base<std::thread, std::allocator<std::thread>>::_Vector_impl_data" = type { ptr, ptr, ptr }

@.str.1 = private unnamed_addr constant [120 x i8] c"generated/home/dtcxzyw/WorkSpace/Projects/compilers/llvm-opt-benchmark/bench/pbrt-v4/pbrt-v4/src/pbrt/util/parallel.cpp\00", align 1
@.str.7 = private unnamed_addr constant [17 x i8] c"Check failed: %s\00", align 1
@.str.10 = private unnamed_addr constant [9 x i8] c"disabled\00", align 1

; Function Attrs: mustprogress uwtable
define dso_local void @_ZN4pbrt10ThreadPool8ReenableEv(ptr noundef nonnull align 8 dereferenceable(128) %0) #0 align 2 {
  %2 = alloca ptr, align 8
  store ptr %0, ptr %2, align 8, !tbaa !52
  %3 = load ptr, ptr %2, align 8
  %4 = getelementptr inbounds nuw %"class.pbrt::ThreadPool", ptr %3, i32 0, i32 3
  %5 = load i8, ptr %4, align 1, !tbaa !62, !range !50, !noundef !51
  %6 = trunc i8 %5 to i1
  br i1 %6, label %9, label %7

7:                                                ; preds = %1
  call void @_ZN4pbrt8LogFatalIJRA9_KcEEEvNS_8LogLevelEPS1_iS5_DpOT_(i32 noundef 2, ptr noundef @.str.1, i32 noundef 158, ptr noundef @.str.7, ptr noundef nonnull align 1 dereferenceable(9) @.str.10) #19
  unreachable

8:                                                ; No predecessors!
  br label %9

9:                                                ; preds = %8, %1
  %10 = getelementptr inbounds nuw %"class.pbrt::ThreadPool", ptr %3, i32 0, i32 3
  store i8 0, ptr %10, align 1, !tbaa !62
  ret void
}