; Function Attrs: mustprogress uwtable
define dso_local void @_ZN4pbrt10ThreadPool8ReenableEv(ptr noundef nonnull align 8 captures(none) dereferenceable(128) %0) local_unnamed_addr #0 align 2 {
  %2 = getelementptr inbounds nuw i8, ptr %0, i64 65
  %3 = load i8, ptr %2, align 1, !tbaa !81, !range !41, !noundef !78
  %4 = trunc nuw i8 %3 to i1
  br i1 %4, label %6, label %5

5:                                                ; preds = %1
  tail call void @_ZN4pbrt8LogFatalIJRA9_KcEEEvNS_8LogLevelEPS1_iS5_DpOT_(i32 noundef 2, ptr noundef nonnull @.str.1, i32 noundef 158, ptr noundef nonnull @.str.7, ptr noundef nonnull align 1 dereferenceable(9) @.str.10) #27
  unreachable

6:                                                ; preds = %1
  store i8 0, ptr %2, align 1, !tbaa !81
  ret void
}